target datalayout = "e-m:e-p270:32:32-p271:32:32-p272:64:64-i64:64-i128:128-f80:128-n8:16:32:64-S128"
target triple = "x86_64-pc-linux-gnu"

@.str = private unnamed_addr constant [2 x i8] c"r\00", align 1

; Function Attrs: mustprogress uwtable
define void @_Z17gmx_gro_read_confRKNSt10filesystem7__cxx114pathEP8t_symtabPPcP7t_atomsPA3_fSB_SB_(ptr noundef nonnull align 8 dereferenceable(40) %0, ptr noundef %1, ptr noundef %2, ptr noundef %3, ptr noundef %4, ptr noundef %5, ptr noundef %6) #0 {
  %8 = alloca ptr, align 8
  %9 = alloca ptr, align 8
  %10 = alloca ptr, align 8
  %11 = alloca ptr, align 8
  %12 = alloca ptr, align 8
  %13 = alloca ptr, align 8
  %14 = alloca ptr, align 8
  %15 = alloca ptr, align 8
  %16 = alloca i32, align 4
  %17 = alloca [4096 x i8], align 16
  store ptr %0, ptr %8, align 8, !tbaa !4
  store ptr %1, ptr %9, align 8, !tbaa !68
  store ptr %2, ptr %10, align 8, !tbaa !46
  store ptr %3, ptr %11, align 8, !tbaa !70
  store ptr %4, ptr %12, align 8, !tbaa !72
  store ptr %5, ptr %13, align 8, !tbaa !72
  store ptr %6, ptr %14, align 8, !tbaa !72
  call void @llvm.lifetime.start.p0(i64 8, ptr %15) #13
  %18 = load ptr, ptr %8, align 8, !tbaa !4
  %19 = call noundef ptr @_Z13gmx_fio_fopenRKNSt10filesystem7__cxx114pathEPKc(ptr noundef nonnull align 8 dereferenceable(40) %18, ptr noundef @.str)
  store ptr %19, ptr %15, align 8, !tbaa !11
  call void @llvm.lifetime.start.p0(i64 4, ptr %16) #13
  call void @llvm.lifetime.start.p0(i64 4096, ptr %17) #13
  %20 = load ptr, ptr %15, align 8, !tbaa !11
  %21 = load ptr, ptr %8, align 8, !tbaa !4
  %22 = getelementptr inbounds [4096 x i8], ptr %17, i64 0, i64 0
  %23 = load ptr, ptr %9, align 8, !tbaa !68
  %24 = load ptr, ptr %11, align 8, !tbaa !70
  %25 = load ptr, ptr %12, align 8, !tbaa !72
  %26 = load ptr, ptr %13, align 8, !tbaa !72
  %27 = load ptr, ptr %14, align 8, !tbaa !72
  %28 = call noundef zeroext i1 @_ZL10get_w_confP8_IO_FILERKNSt10filesystem7__cxx114pathEPcP8t_symtabP7t_atomsPiPA3_fSD_SD_(ptr noundef %20, ptr noundef nonnull align 8 dereferenceable(40) %21, ptr noundef %22, ptr noundef %23, ptr noundef %24, ptr noundef %16, ptr noundef %25, ptr noundef %26, ptr noundef %27)
  %29 = load ptr, ptr %10, align 8, !tbaa !46
  %30 = icmp ne ptr %29, null
  br i1 %30, label %31, label %35

31:                                               ; preds = %7
  %32 = getelementptr inbounds [4096 x i8], ptr %17, i64 0, i64 0
  %33 = call noundef ptr @_Z10gmx_strdupPKc(ptr noundef %32)
  %34 = load ptr, ptr %10, align 8, !tbaa !46
  store ptr %33, ptr %34, align 8, !tbaa !13
  br label %35

35:                                               ; preds = %31, %7
  %36 = load ptr, ptr %15, align 8, !tbaa !11
  %37 = call noundef i32 @_Z14gmx_fio_fcloseP8_IO_FILE(ptr noundef %36)
  call void @llvm.lifetime.end.p0(i64 4096, ptr %17) #13
  call void @llvm.lifetime.end.p0(i64 4, ptr %16) #13
  call void @llvm.lifetime.end.p0(i64 8, ptr %15) #13
  ret void
}