; Function Attrs: mustprogress uwtable
define void @_Z17gmx_gro_read_confRKNSt10filesystem7__cxx114pathEP8t_symtabPPcP7t_atomsPA3_fSB_SB_(ptr noundef nonnull align 8 dereferenceable(40) %0, ptr noundef %1, ptr noundef writeonly %2, ptr noundef %3, ptr noundef captures(none) %4, ptr noundef %5, ptr noundef captures(none) %6) local_unnamed_addr #0 {
  %8 = alloca i32, align 4
  %9 = alloca [4096 x i8], align 16
  %10 = tail call noundef ptr @_Z13gmx_fio_fopenRKNSt10filesystem7__cxx114pathEPKc(ptr noundef nonnull align 8 dereferenceable(40) %0, ptr noundef nonnull @.str)
  call void @llvm.lifetime.start.p0(i64 4, ptr nonnull %8) #19
  call void @llvm.lifetime.start.p0(i64 4096, ptr nonnull %9) #19
  %11 = call fastcc noundef zeroext i1 @_ZL10get_w_confP8_IO_FILERKNSt10filesystem7__cxx114pathEPcP8t_symtabP7t_atomsPiPA3_fSD_SD_(ptr noundef %10, ptr noundef nonnull align 8 dereferenceable(40) %0, ptr noundef %9, ptr noundef %1, ptr noundef %3, ptr noundef %8, ptr noundef %4, ptr noundef %5, ptr noundef %6)
  %.not = icmp eq ptr %2, null
  br i1 %.not, label %14, label %12

12:                                               ; preds = %7
  %13 = call noundef ptr @_Z10gmx_strdupPKc(ptr noundef nonnull %9)
  store ptr %13, ptr %2, align 8, !tbaa !18
  br label %14

14:                                               ; preds = %12, %7
  %15 = call noundef i32 @_Z14gmx_fio_fcloseP8_IO_FILE(ptr noundef %10)
  call void @llvm.lifetime.end.p0(i64 4096, ptr nonnull %9) #19
  call void @llvm.lifetime.end.p0(i64 4, ptr nonnull %8) #19
  ret void
}